; Function Attrs: mustprogress nounwind uwtable
define noundef zeroext i1 @_ZNK9grpc_core16CommonTlsContext33CertificateProviderPluginInstance5EmptyEv(ptr noundef nonnull align 8 dereferenceable(64) %this) local_unnamed_addr #4 align 2 {
entry:
  %call = tail call noundef zeroext i1 @_ZNKSt7__cxx1112basic_stringIcSt11char_traitsIcESaIcEE5emptyEv(ptr noundef nonnull align 8 dereferenceable(32) %this) #20
  br i1 %call, label %land.rhs, label %land.end

land.rhs:                                         ; preds = %entry
  %certificate_name = getelementptr inbounds i8, ptr %this, i64 32
  %call2 = tail call noundef zeroext i1 @_ZNKSt7__cxx1112basic_stringIcSt11char_traitsIcESaIcEE5emptyEv(ptr noundef nonnull align 8 dereferenceable(32) %certificate_name) #20
  br label %land.end

land.end:                                         ; preds = %land.rhs, %entry
  %0 = phi i1 [ false, %entry ], [ %call2, %land.rhs ]
  ret i1 %0
}